target datalayout = "e-m:e-p270:32:32-p271:32:32-p272:64:64-i64:64-i128:128-f80:128-n8:16:32:64-S128"
target triple = "x86_64-pc-linux-gnu"

%struct.GISTInsertStack = type { i32, i32, ptr, i64, i8, i16, ptr }
%struct.GISTInsertState = type { ptr, ptr, i64, i8, ptr }

; Function Attrs: inlinehint nounwind uwtable
define internal zeroext i1 @BufferIsValid(i32 noundef %0) #2 {
  %2 = alloca i32, align 4
  store i32 %0, ptr %2, align 4
  %3 = load i32, ptr %2, align 4
  %4 = icmp ne i32 %3, 0
  ret i1 %4
}

; Function Attrs: nounwind uwtable
define internal zeroext i1 @gistinserttuples(ptr noundef %0, ptr noundef %1, ptr noundef %2, ptr noundef %3, i32 noundef %4, i16 noundef zeroext %5, i32 noundef %6, i32 noundef %7, i1 noundef zeroext %8, i1 noundef zeroext %9) #0 {
  %11 = alloca ptr, align 8
  %12 = alloca ptr, align 8
  %13 = alloca ptr, align 8
  %14 = alloca ptr, align 8
  %15 = alloca i32, align 4
  %16 = alloca i16, align 2
  %17 = alloca i32, align 4
  %18 = alloca i32, align 4
  %19 = alloca i8, align 1
  %20 = alloca i8, align 1
  %21 = alloca ptr, align 8
  %22 = alloca i8, align 1
  store ptr %0, ptr %11, align 8
  store ptr %1, ptr %12, align 8
  store ptr %2, ptr %13, align 8
  store ptr %3, ptr %14, align 8
  store i32 %4, ptr %15, align 4
  store i16 %5, ptr %16, align 2
  store i32 %6, ptr %17, align 4
  store i32 %7, ptr %18, align 4
  %23 = zext i1 %8 to i8
  store i8 %23, ptr %19, align 1
  %24 = zext i1 %9 to i8
  store i8 %24, ptr %20, align 1
  call void @llvm.lifetime.start.p0(i64 8, ptr %21) #7
  call void @llvm.lifetime.start.p0(i64 1, ptr %22) #7
  %25 = load ptr, ptr %11, align 8
  %26 = getelementptr inbounds nuw %struct.GISTInsertState, ptr %25, i32 0, i32 0
  %27 = load ptr, ptr %26, align 8
  %28 = load ptr, ptr %12, align 8
  %29 = getelementptr inbounds nuw %struct.GISTInsertStack, ptr %28, i32 0, i32 1
  %30 = load i32, ptr %29, align 4
  %31 = call i32 @BufferGetBlockNumber(i32 noundef %30)
  call void @CheckForSerializableConflictIn(ptr noundef %27, ptr noundef null, i32 noundef %31)
  %32 = load ptr, ptr %11, align 8
  %33 = getelementptr inbounds nuw %struct.GISTInsertState, ptr %32, i32 0, i32 0
  %34 = load ptr, ptr %33, align 8
  %35 = load ptr, ptr %11, align 8
  %36 = getelementptr inbounds nuw %struct.GISTInsertState, ptr %35, i32 0, i32 2
  %37 = load i64, ptr %36, align 8
  %38 = load ptr, ptr %13, align 8
  %39 = load ptr, ptr %12, align 8
  %40 = getelementptr inbounds nuw %struct.GISTInsertStack, ptr %39, i32 0, i32 1
  %41 = load i32, ptr %40, align 4
  %42 = load ptr, ptr %14, align 8
  %43 = load i32, ptr %15, align 4
  %44 = load i16, ptr %16, align 2
  %45 = load i32, ptr %17, align 4
  %46 = load ptr, ptr %11, align 8
  %47 = getelementptr inbounds nuw %struct.GISTInsertState, ptr %46, i32 0, i32 1
  %48 = load ptr, ptr %47, align 8
  %49 = load ptr, ptr %11, align 8
  %50 = getelementptr inbounds nuw %struct.GISTInsertState, ptr %49, i32 0, i32 3
  %51 = load i8, ptr %50, align 8, !range !7, !noundef !8
  %52 = trunc i8 %51 to i1
  %53 = call zeroext i1 @gistplacetopage(ptr noundef %34, i64 noundef %37, ptr noundef %38, i32 noundef %41, ptr noundef %42, i32 noundef %43, i16 noundef zeroext %44, ptr noundef null, i32 noundef %45, ptr noundef %21, i1 noundef zeroext true, ptr noundef %48, i1 noundef zeroext %52)
  %54 = zext i1 %53 to i8
  store i8 %54, ptr %22, align 1
  %55 = load i32, ptr %18, align 4
  %56 = call zeroext i1 @BufferIsValid(i32 noundef %55)
  br i1 %56, label %57, label %59

57:                                               ; preds = %10
  %58 = load i32, ptr %18, align 4
  call void @UnlockReleaseBuffer(i32 noundef %58)
  br label %59

59:                                               ; preds = %57, %10
  %60 = load i32, ptr %17, align 4
  %61 = call zeroext i1 @BufferIsValid(i32 noundef %60)
  br i1 %61, label %62, label %67

62:                                               ; preds = %59
  %63 = load i8, ptr %20, align 1, !range !7, !noundef !8
  %64 = trunc i8 %63 to i1
  br i1 %64, label %65, label %67

65:                                               ; preds = %62
  %66 = load i32, ptr %17, align 4
  call void @LockBuffer(i32 noundef %66, i32 noundef 0)
  br label %67

67:                                               ; preds = %65, %62, %59
  %68 = load ptr, ptr %21, align 8
  %69 = icmp ne ptr %68, null
  br i1 %69, label %70, label %77

70:                                               ; preds = %67
  %71 = load ptr, ptr %11, align 8
  %72 = load ptr, ptr %12, align 8
  %73 = load ptr, ptr %13, align 8
  %74 = load ptr, ptr %21, align 8
  %75 = load i8, ptr %19, align 1, !range !7, !noundef !8
  %76 = trunc i8 %75 to i1
  call void @gistfinishsplit(ptr noundef %71, ptr noundef %72, ptr noundef %73, ptr noundef %74, i1 noundef zeroext %76)
  br label %85

77:                                               ; preds = %67
  %78 = load i8, ptr %19, align 1, !range !7, !noundef !8
  %79 = trunc i8 %78 to i1
  br i1 %79, label %80, label %84

80:                                               ; preds = %77
  %81 = load ptr, ptr %12, align 8
  %82 = getelementptr inbounds nuw %struct.GISTInsertStack, ptr %81, i32 0, i32 1
  %83 = load i32, ptr %82, align 4
  call void @LockBuffer(i32 noundef %83, i32 noundef 0)
  br label %84

84:                                               ; preds = %80, %77
  br label %85

85:                                               ; preds = %84, %70
  %86 = load i8, ptr %22, align 1, !range !7, !noundef !8
  %87 = trunc i8 %86 to i1
  call void @llvm.lifetime.end.p0(i64 1, ptr %22) #7
  call void @llvm.lifetime.end.p0(i64 8, ptr %21) #7
  ret i1 %87
}