; Function Attrs: nounwind uwtable
define internal fastcc noundef zeroext i1 @gistinserttuples(ptr noundef nonnull readonly captures(none) %0, ptr noundef captures(none) %1, ptr noundef %2, ptr noundef %3, i32 noundef range(i32 1, 3) %4, i16 noundef zeroext %5, i32 noundef %6, i32 noundef %7, i1 noundef zeroext %8, i1 noundef zeroext %9) unnamed_addr #0 {
  %11 = alloca ptr, align 8
  call void @llvm.lifetime.start.p0(i64 8, ptr nonnull %11) #8
  %12 = load ptr, ptr %0, align 8
  %13 = getelementptr inbounds nuw i8, ptr %1, i64 4
  %14 = load i32, ptr %13, align 4
  %15 = tail call i32 @BufferGetBlockNumber(i32 noundef %14) #8
  tail call void @CheckForSerializableConflictIn(ptr noundef %12, ptr noundef null, i32 noundef %15) #8
  %16 = load ptr, ptr %0, align 8
  %17 = getelementptr inbounds nuw i8, ptr %0, i64 16
  %18 = load i64, ptr %17, align 8
  %19 = load i32, ptr %13, align 4
  %20 = getelementptr inbounds nuw i8, ptr %0, i64 8
  %21 = load ptr, ptr %20, align 8
  %22 = getelementptr inbounds nuw i8, ptr %0, i64 24
  %23 = load i8, ptr %22, align 8, !range !7, !noundef !8
  %24 = trunc nuw i8 %23 to i1
  %25 = call zeroext i1 @gistplacetopage(ptr noundef %16, i64 noundef %18, ptr noundef %2, i32 noundef %19, ptr noundef %3, i32 noundef %4, i16 noundef zeroext %5, ptr noundef null, i32 noundef %6, ptr noundef nonnull %11, i1 noundef zeroext true, ptr noundef %21, i1 noundef zeroext %24)
  %.not25 = icmp eq i32 %7, 0
  br i1 %.not25, label %27, label %26

26:                                               ; preds = %10
  tail call void @UnlockReleaseBuffer(i32 noundef %7) #8
  br label %27

27:                                               ; preds = %26, %10
  %.not26 = icmp ne i32 %6, 0
  %brmerge.not = and i1 %.not26, %9
  br i1 %brmerge.not, label %28, label %29

28:                                               ; preds = %27
  tail call void @LockBuffer(i32 noundef %6, i32 noundef 0) #8
  br label %29

29:                                               ; preds = %27, %28
  %30 = load ptr, ptr %11, align 8
  %.not = icmp eq ptr %30, null
  br i1 %.not, label %32, label %31

31:                                               ; preds = %29
  tail call fastcc void @gistfinishsplit(ptr noundef %0, ptr noundef nonnull %1, ptr noundef %2, ptr noundef nonnull %30, i1 noundef zeroext %8)
  br label %35

32:                                               ; preds = %29
  br i1 %8, label %33, label %35

33:                                               ; preds = %32
  %34 = load i32, ptr %13, align 4
  tail call void @LockBuffer(i32 noundef %34, i32 noundef 0) #8
  br label %35

35:                                               ; preds = %32, %33, %31
  call void @llvm.lifetime.end.p0(i64 8, ptr nonnull %11) #8
  ret i1 %25
}